target datalayout = "e-m:e-p270:32:32-p271:32:32-p272:64:64-i64:64-i128:128-f80:128-n8:16:32:64-S128"
target triple = "x86_64-pc-linux-gnu"

@.str.10 = private unnamed_addr constant [8 x i8] c"PALETTE\00", align 1

; Function Attrs: nounwind uwtable
define i32 @H5IM_find_palette(i64 noundef %0) #0 {
  %2 = alloca i64, align 8
  store i64 %0, ptr %2, align 8, !tbaa !3
  %3 = load i64, ptr %2, align 8, !tbaa !3
  %4 = call i32 @H5Aiterate2(i64 noundef %3, i32 noundef 0, i32 noundef 0, ptr noundef null, ptr noundef @find_palette, ptr noundef null)
  ret i32 %4
}

; Function Attrs: nounwind uwtable
define i32 @H5IMget_palette(i64 noundef %0, ptr noundef %1, i32 noundef %2, ptr noundef %3) #0 {
  %5 = alloca i32, align 4
  %6 = alloca i64, align 8
  %7 = alloca ptr, align 8
  %8 = alloca i32, align 4
  %9 = alloca ptr, align 8
  %10 = alloca i64, align 8
  %11 = alloca i32, align 4
  %12 = alloca i64, align 8
  %13 = alloca i64, align 8
  %14 = alloca i64, align 8
  %15 = alloca i64, align 8
  %16 = alloca i64, align 8
  %17 = alloca ptr, align 8
  %18 = alloca i64, align 8
  %19 = alloca i32, align 4
  store i64 %0, ptr %6, align 8, !tbaa !3
  store ptr %1, ptr %7, align 8, !tbaa !7
  store i32 %2, ptr %8, align 4, !tbaa !15
  store ptr %3, ptr %9, align 8, !tbaa !7
  call void @llvm.lifetime.start.p0(i64 8, ptr %10) #7
  call void @llvm.lifetime.start.p0(i64 4, ptr %11) #7
  call void @llvm.lifetime.start.p0(i64 8, ptr %12) #7
  store i64 -1, ptr %12, align 8, !tbaa !3
  call void @llvm.lifetime.start.p0(i64 8, ptr %13) #7
  call void @llvm.lifetime.start.p0(i64 8, ptr %14) #7
  store i64 -1, ptr %14, align 8, !tbaa !3
  call void @llvm.lifetime.start.p0(i64 8, ptr %15) #7
  call void @llvm.lifetime.start.p0(i64 8, ptr %16) #7
  call void @llvm.lifetime.start.p0(i64 8, ptr %17) #7
  call void @llvm.lifetime.start.p0(i64 8, ptr %18) #7
  %20 = load ptr, ptr %7, align 8, !tbaa !7
  %21 = icmp eq ptr %20, null
  br i1 %21, label %22, label %23

22:                                               ; preds = %4
  store i32 -1, ptr %5, align 4
  store i32 1, ptr %19, align 4
  br label %125

23:                                               ; preds = %4
  %24 = load ptr, ptr %9, align 8, !tbaa !7
  %25 = icmp eq ptr %24, null
  br i1 %25, label %26, label %27

26:                                               ; preds = %23
  store i32 -1, ptr %5, align 4
  store i32 1, ptr %19, align 4
  br label %125

27:                                               ; preds = %23
  %28 = load i64, ptr %6, align 8, !tbaa !3
  %29 = load ptr, ptr %7, align 8, !tbaa !7
  %30 = call i64 @H5Dopen2(i64 noundef %28, ptr noundef %29, i64 noundef 0)
  store i64 %30, ptr %10, align 8, !tbaa !3
  %31 = icmp slt i64 %30, 0
  br i1 %31, label %32, label %33

32:                                               ; preds = %27
  store i32 -1, ptr %5, align 4
  store i32 1, ptr %19, align 4
  br label %125

33:                                               ; preds = %27
  %34 = load i64, ptr %10, align 8, !tbaa !3
  %35 = call i32 @H5IM_find_palette(i64 noundef %34)
  store i32 %35, ptr %11, align 4, !tbaa !15
  %36 = load i32, ptr %11, align 4, !tbaa !15
  %37 = icmp eq i32 %36, 1
  br i1 %37, label %38, label %110

38:                                               ; preds = %33
  %39 = load i64, ptr %10, align 8, !tbaa !3
  %40 = call i64 @H5Aopen(i64 noundef %39, ptr noundef @.str.10, i64 noundef 0)
  store i64 %40, ptr %13, align 8, !tbaa !3
  %41 = icmp slt i64 %40, 0
  br i1 %41, label %42, label %43

42:                                               ; preds = %38
  br label %116

43:                                               ; preds = %38
  %44 = load i64, ptr %13, align 8, !tbaa !3
  %45 = call i64 @H5Aget_type(i64 noundef %44)
  store i64 %45, ptr %12, align 8, !tbaa !3
  %46 = icmp slt i64 %45, 0
  br i1 %46, label %47, label %48

47:                                               ; preds = %43
  br label %116

48:                                               ; preds = %43
  %49 = load i64, ptr %12, align 8, !tbaa !3
  %50 = call i32 @H5Tget_class(i64 noundef %49)
  %51 = icmp slt i32 %50, 0
  br i1 %51, label %52, label %53

52:                                               ; preds = %48
  br label %116

53:                                               ; preds = %48
  %54 = load i64, ptr %13, align 8, !tbaa !3
  %55 = call i64 @H5Aget_space(i64 noundef %54)
  store i64 %55, ptr %14, align 8, !tbaa !3
  %56 = icmp slt i64 %55, 0
  br i1 %56, label %57, label %58

57:                                               ; preds = %53
  br label %116

58:                                               ; preds = %53
  %59 = load i64, ptr %14, align 8, !tbaa !3
  %60 = call i64 @H5Sget_simple_extent_npoints(i64 noundef %59)
  store i64 %60, ptr %15, align 8, !tbaa !3
  %61 = load i64, ptr %15, align 8, !tbaa !3
  store i64 %61, ptr %16, align 8, !tbaa !3
  %62 = load i64, ptr %16, align 8, !tbaa !3
  %63 = mul i64 8, %62
  %64 = call noalias ptr @malloc(i64 noundef %63) #9
  store ptr %64, ptr %17, align 8, !tbaa !17
  %65 = load i64, ptr %13, align 8, !tbaa !3
  %66 = load i64, ptr %12, align 8, !tbaa !3
  %67 = load ptr, ptr %17, align 8, !tbaa !17
  %68 = call i32 @H5Aread(i64 noundef %65, i64 noundef %66, ptr noundef %67)
  %69 = icmp slt i32 %68, 0
  br i1 %69, label %70, label %71

70:                                               ; preds = %58
  br label %116

71:                                               ; preds = %58
  %72 = load i64, ptr %10, align 8, !tbaa !3
  %73 = load ptr, ptr %17, align 8, !tbaa !17
  %74 = load i32, ptr %8, align 4, !tbaa !15
  %75 = sext i32 %74 to i64
  %76 = getelementptr inbounds i64, ptr %73, i64 %75
  %77 = call i64 @H5Rdereference2(i64 noundef %72, i64 noundef 0, i32 noundef 0, ptr noundef %76)
  store i64 %77, ptr %18, align 8, !tbaa !3
  %78 = icmp slt i64 %77, 0
  br i1 %78, label %79, label %80

79:                                               ; preds = %71
  br label %116

80:                                               ; preds = %71
  %81 = load i64, ptr %18, align 8, !tbaa !3
  %82 = load i64, ptr %18, align 8, !tbaa !3
  %83 = call i64 @H5Dget_type(i64 noundef %82)
  %84 = load ptr, ptr %9, align 8, !tbaa !7
  %85 = call i32 @H5Dread(i64 noundef %81, i64 noundef %83, i64 noundef 0, i64 noundef 0, i64 noundef 0, ptr noundef %84)
  %86 = icmp slt i32 %85, 0
  br i1 %86, label %87, label %88

87:                                               ; preds = %80
  br label %116

88:                                               ; preds = %80
  %89 = load i64, ptr %18, align 8, !tbaa !3
  %90 = call i32 @H5Dclose(i64 noundef %89)
  %91 = icmp slt i32 %90, 0
  br i1 %91, label %92, label %93

92:                                               ; preds = %88
  br label %116

93:                                               ; preds = %88
  %94 = load i64, ptr %14, align 8, !tbaa !3
  %95 = call i32 @H5Sclose(i64 noundef %94)
  %96 = icmp slt i32 %95, 0
  br i1 %96, label %97, label %98

97:                                               ; preds = %93
  br label %116

98:                                               ; preds = %93
  %99 = load i64, ptr %12, align 8, !tbaa !3
  %100 = call i32 @H5Tclose(i64 noundef %99)
  %101 = icmp slt i32 %100, 0
  br i1 %101, label %102, label %103

102:                                              ; preds = %98
  br label %116

103:                                              ; preds = %98
  %104 = load i64, ptr %13, align 8, !tbaa !3
  %105 = call i32 @H5Aclose(i64 noundef %104)
  %106 = icmp slt i32 %105, 0
  br i1 %106, label %107, label %108

107:                                              ; preds = %103
  br label %116

108:                                              ; preds = %103
  %109 = load ptr, ptr %17, align 8, !tbaa !17
  call void @free(ptr noundef %109) #7
  br label %110

110:                                              ; preds = %108, %33
  %111 = load i64, ptr %10, align 8, !tbaa !3
  %112 = call i32 @H5Dclose(i64 noundef %111)
  %113 = icmp slt i32 %112, 0
  br i1 %113, label %114, label %115

114:                                              ; preds = %110
  store i32 -1, ptr %5, align 4
  store i32 1, ptr %19, align 4
  br label %125

115:                                              ; preds = %110
  store i32 0, ptr %5, align 4
  store i32 1, ptr %19, align 4
  br label %125

116:                                              ; preds = %107, %102, %97, %92, %87, %79, %70, %57, %52, %47, %42
  %117 = load i64, ptr %10, align 8, !tbaa !3
  %118 = call i32 @H5Dclose(i64 noundef %117)
  %119 = load i64, ptr %14, align 8, !tbaa !3
  %120 = call i32 @H5Sclose(i64 noundef %119)
  %121 = load i64, ptr %12, align 8, !tbaa !3
  %122 = call i32 @H5Tclose(i64 noundef %121)
  %123 = load i64, ptr %13, align 8, !tbaa !3
  %124 = call i32 @H5Aclose(i64 noundef %123)
  store i32 -1, ptr %5, align 4
  store i32 1, ptr %19, align 4
  br label %125

125:                                              ; preds = %116, %115, %114, %32, %26, %22
  call void @llvm.lifetime.end.p0(i64 8, ptr %18) #7
  call void @llvm.lifetime.end.p0(i64 8, ptr %17) #7
  call void @llvm.lifetime.end.p0(i64 8, ptr %16) #7
  call void @llvm.lifetime.end.p0(i64 8, ptr %15) #7
  call void @llvm.lifetime.end.p0(i64 8, ptr %14) #7
  call void @llvm.lifetime.end.p0(i64 8, ptr %13) #7
  call void @llvm.lifetime.end.p0(i64 8, ptr %12) #7
  call void @llvm.lifetime.end.p0(i64 4, ptr %11) #7
  call void @llvm.lifetime.end.p0(i64 8, ptr %10) #7
  %126 = load i32, ptr %5, align 4
  ret i32 %126
}