; Function Attrs: nounwind uwtable
define range(i32 -1, 1) i32 @H5IMget_palette(i64 noundef %0, ptr noundef %1, i32 noundef %2, ptr noundef %3) local_unnamed_addr #0 {
  %5 = icmp eq ptr %1, null
  %6 = icmp eq ptr %3, null
  %or.cond = or i1 %5, %6
  br i1 %or.cond, label %60, label %7

7:                                                ; preds = %4
  %8 = tail call i64 @H5Dopen2(i64 noundef %0, ptr noundef nonnull %1, i64 noundef 0) #8
  %9 = icmp slt i64 %8, 0
  br i1 %9, label %60, label %10

10:                                               ; preds = %7
  %11 = tail call i32 @H5Aiterate2(i64 noundef %8, i32 noundef 0, i32 noundef 0, ptr noundef null, ptr noundef nonnull @find_palette, ptr noundef null) #8
  %12 = icmp eq i32 %11, 1
  br i1 %12, label %13, label %53

13:                                               ; preds = %10
  %14 = tail call i64 @H5Aopen(i64 noundef %8, ptr noundef nonnull @.str.10, i64 noundef 0) #8
  %15 = icmp slt i64 %14, 0
  br i1 %15, label %55, label %16

16:                                               ; preds = %13
  %17 = tail call i64 @H5Aget_type(i64 noundef %14) #8
  %18 = icmp slt i64 %17, 0
  br i1 %18, label %55, label %19

19:                                               ; preds = %16
  %20 = tail call i32 @H5Tget_class(i64 noundef %17) #8
  %21 = icmp slt i32 %20, 0
  br i1 %21, label %55, label %22

22:                                               ; preds = %19
  %23 = tail call i64 @H5Aget_space(i64 noundef %14) #8
  %24 = icmp slt i64 %23, 0
  br i1 %24, label %55, label %25

25:                                               ; preds = %22
  %26 = tail call i64 @H5Sget_simple_extent_npoints(i64 noundef %23) #8
  %27 = shl i64 %26, 3
  %28 = tail call noalias ptr @malloc(i64 noundef %27) #10
  %29 = tail call i32 @H5Aread(i64 noundef %14, i64 noundef %17, ptr noundef %28) #8
  %30 = icmp slt i32 %29, 0
  br i1 %30, label %55, label %31

31:                                               ; preds = %25
  %32 = sext i32 %2 to i64
  %33 = getelementptr inbounds i64, ptr %28, i64 %32
  %34 = tail call i64 @H5Rdereference2(i64 noundef %8, i64 noundef 0, i32 noundef 0, ptr noundef %33) #8
  %35 = icmp slt i64 %34, 0
  br i1 %35, label %55, label %36

36:                                               ; preds = %31
  %37 = tail call i64 @H5Dget_type(i64 noundef %34) #8
  %38 = tail call i32 @H5Dread(i64 noundef %34, i64 noundef %37, i64 noundef 0, i64 noundef 0, i64 noundef 0, ptr noundef nonnull %3) #8
  %39 = icmp slt i32 %38, 0
  br i1 %39, label %55, label %40

40:                                               ; preds = %36
  %41 = tail call i32 @H5Dclose(i64 noundef %34) #8
  %42 = icmp slt i32 %41, 0
  br i1 %42, label %55, label %43

43:                                               ; preds = %40
  %44 = tail call i32 @H5Sclose(i64 noundef %23) #8
  %45 = icmp slt i32 %44, 0
  br i1 %45, label %55, label %46

46:                                               ; preds = %43
  %47 = tail call i32 @H5Tclose(i64 noundef %17) #8
  %48 = icmp slt i32 %47, 0
  br i1 %48, label %55, label %49

49:                                               ; preds = %46
  %50 = tail call i32 @H5Aclose(i64 noundef %14) #8
  %51 = icmp slt i32 %50, 0
  br i1 %51, label %55, label %52

52:                                               ; preds = %49
  tail call void @free(ptr noundef %28) #8
  br label %53

53:                                               ; preds = %52, %10
  %54 = tail call i32 @H5Dclose(i64 noundef %8) #8
  %.lobit = ashr i32 %54, 31
  br label %60

55:                                               ; preds = %49, %46, %43, %40, %36, %31, %25, %22, %19, %16, %13
  %.033 = phi i64 [ -1, %13 ], [ -1, %16 ], [ -1, %19 ], [ %23, %22 ], [ %23, %25 ], [ %23, %31 ], [ %23, %36 ], [ %23, %40 ], [ %23, %43 ], [ %23, %46 ], [ %23, %49 ]
  %.032 = phi i64 [ -1, %13 ], [ %17, %16 ], [ %17, %19 ], [ %17, %22 ], [ %17, %25 ], [ %17, %31 ], [ %17, %36 ], [ %17, %40 ], [ %17, %43 ], [ %17, %46 ], [ %17, %49 ]
  %56 = tail call i32 @H5Dclose(i64 noundef %8) #8
  %57 = tail call i32 @H5Sclose(i64 noundef %.033) #8
  %58 = tail call i32 @H5Tclose(i64 noundef %.032) #8
  %59 = tail call i32 @H5Aclose(i64 noundef %14) #8
  br label %60

60:                                               ; preds = %53, %7, %4, %55
  %.0 = phi i32 [ -1, %55 ], [ -1, %4 ], [ -1, %7 ], [ %.lobit, %53 ]
  ret i32 %.0
}